target datalayout = "e-m:e-p270:32:32-p271:32:32-p272:64:64-i64:64-i128:128-f80:128-n8:16:32:64-S128"
target triple = "x86_64-pc-linux-gnu"

@_ZN12_GLOBAL__N_110open_countE = internal global i32 0, align 4

; Function Attrs: mustprogress uwtable
define hidden noundef i32 @_ZN4test4openEPKcii(ptr noundef %0, i32 noundef %1, i32 noundef %2) #1 {
  %4 = alloca i32, align 4
  %5 = alloca ptr, align 8
  %6 = alloca i32, align 4
  %7 = alloca i32, align 4
  store ptr %0, ptr %5, align 8, !tbaa !17
  store i32 %1, ptr %6, align 4, !tbaa !12
  store i32 %2, ptr %7, align 4, !tbaa !12
  %8 = load i32, ptr @_ZN12_GLOBAL__N_110open_countE, align 4, !tbaa !12
  %9 = icmp ne i32 %8, 0
  br i1 %9, label %10, label %17

10:                                               ; preds = %3
  %11 = load i32, ptr @_ZN12_GLOBAL__N_110open_countE, align 4, !tbaa !12
  %12 = add nsw i32 %11, 1
  store i32 %12, ptr @_ZN12_GLOBAL__N_110open_countE, align 4, !tbaa !12
  %13 = icmp ne i32 %11, 3
  br i1 %13, label %14, label %16

14:                                               ; preds = %10
  %15 = call ptr @__errno_location() #20
  store i32 4, ptr %15, align 4, !tbaa !12
  store i32 -1, ptr %4, align 4
  br label %22

16:                                               ; preds = %10
  br label %17

17:                                               ; preds = %16, %3
  %18 = load ptr, ptr %5, align 8, !tbaa !17
  %19 = load i32, ptr %6, align 4, !tbaa !12
  %20 = load i32, ptr %7, align 4, !tbaa !12
  %21 = call i32 (ptr, i32, ...) @open(ptr noundef %18, i32 noundef %19, i32 noundef %20)
  store i32 %21, ptr %4, align 4
  br label %22

22:                                               ; preds = %17, %14
  %23 = load i32, ptr %4, align 4
  ret i32 %23
}